target datalayout = "e-m:e-p270:32:32-p271:32:32-p272:64:64-i64:64-i128:128-f80:128-n8:16:32:64-S128"
target triple = "x86_64-pc-linux-gnu"

@.str.10 = private unnamed_addr constant [5 x i8] c"ibm-\00", align 1

; Function Attrs: mustprogress nounwind uwtable
define internal noundef i32 @_ZL23ucnv_copyPlatformStringPc18UConverterPlatform(ptr noundef %0, i32 noundef %1) #4 {
  %3 = alloca i32, align 4
  %4 = alloca ptr, align 8
  %5 = alloca i32, align 4
  store ptr %0, ptr %4, align 8, !tbaa !3
  store i32 %1, ptr %5, align 4, !tbaa !17
  %6 = load i32, ptr %5, align 4, !tbaa !17
  switch i32 %6, label %10 [
    i32 0, label %7
    i32 -1, label %10
  ]

7:                                                ; preds = %2
  %8 = load ptr, ptr %4, align 8, !tbaa !3
  %9 = call ptr @strcpy(ptr noundef %8, ptr noundef @.str.10) #11
  store i32 4, ptr %3, align 4
  br label %12

10:                                               ; preds = %2, %2
  %11 = load ptr, ptr %4, align 8, !tbaa !3
  store i8 0, ptr %11, align 1, !tbaa !19
  store i32 0, ptr %3, align 4
  br label %12

12:                                               ; preds = %10, %7
  %13 = load i32, ptr %3, align 4
  ret i32 %13
}

; Function Attrs: inlinehint mustprogress nounwind uwtable
define internal noundef signext i8 @_ZL9U_FAILURE10UErrorCode(i32 noundef %0) #2 {
  %2 = alloca i32, align 4
  store i32 %0, ptr %2, align 4, !tbaa !9
  %3 = load i32, ptr %2, align 4, !tbaa !9
  %4 = icmp sgt i32 %3, 0
  %5 = zext i1 %4 to i8
  ret i8 %5
}

; Function Attrs: mustprogress uwtable
define ptr @ucnv_openCCSID_77(i32 noundef %0, i32 noundef %1, ptr noundef %2) #0 {
  %4 = alloca ptr, align 8
  %5 = alloca i32, align 4
  %6 = alloca i32, align 4
  %7 = alloca ptr, align 8
  %8 = alloca [60 x i8], align 16
  %9 = alloca i32, align 4
  %10 = alloca i32, align 4
  store i32 %0, ptr %5, align 4, !tbaa !15
  store i32 %1, ptr %6, align 4, !tbaa !17
  store ptr %2, ptr %7, align 8, !tbaa !8
  call void @llvm.lifetime.start.p0(i64 60, ptr %8) #11
  call void @llvm.lifetime.start.p0(i64 4, ptr %9) #11
  %11 = load ptr, ptr %7, align 8, !tbaa !8
  %12 = icmp eq ptr %11, null
  br i1 %12, label %18, label %13

13:                                               ; preds = %3
  %14 = load ptr, ptr %7, align 8, !tbaa !8
  %15 = load i32, ptr %14, align 4, !tbaa !9
  %16 = call noundef signext i8 @_ZL9U_FAILURE10UErrorCode(i32 noundef %15)
  %17 = icmp ne i8 %16, 0
  br i1 %17, label %18, label %19

18:                                               ; preds = %13, %3
  store ptr null, ptr %4, align 8
  store i32 1, ptr %10, align 4
  br label %32

19:                                               ; preds = %13
  %20 = getelementptr inbounds [60 x i8], ptr %8, i64 0, i64 0
  %21 = load i32, ptr %6, align 4, !tbaa !17
  %22 = call noundef i32 @_ZL23ucnv_copyPlatformStringPc18UConverterPlatform(ptr noundef %20, i32 noundef %21)
  store i32 %22, ptr %9, align 4, !tbaa !15
  %23 = getelementptr inbounds [60 x i8], ptr %8, i64 0, i64 0
  %24 = load i32, ptr %9, align 4, !tbaa !15
  %25 = sext i32 %24 to i64
  %26 = getelementptr inbounds i8, ptr %23, i64 %25
  %27 = load i32, ptr %5, align 4, !tbaa !15
  %28 = call i32 @T_CString_integerToString_77(ptr noundef %26, i32 noundef %27, i32 noundef 10)
  %29 = getelementptr inbounds [60 x i8], ptr %8, i64 0, i64 0
  %30 = load ptr, ptr %7, align 8, !tbaa !8
  %31 = call ptr @ucnv_createConverter_77(ptr noundef null, ptr noundef %29, ptr noundef %30)
  store ptr %31, ptr %4, align 8
  store i32 1, ptr %10, align 4
  br label %32

32:                                               ; preds = %19, %18
  call void @llvm.lifetime.end.p0(i64 4, ptr %9) #11
  call void @llvm.lifetime.end.p0(i64 60, ptr %8) #11
  %33 = load ptr, ptr %4, align 8
  ret ptr %33
}