; Function Attrs: mustprogress uwtable
define ptr @ucnv_openCCSID_77(i32 noundef %0, i32 noundef %1, ptr noundef %2) local_unnamed_addr #0 {
  %4 = alloca [60 x i8], align 16
  call void @llvm.lifetime.start.p0(i64 60, ptr nonnull %4) #16
  %5 = icmp eq ptr %2, null
  %.0.i.sroa.gep = getelementptr inbounds nuw i8, ptr %4, i64 4
  br i1 %5, label %14, label %6

6:                                                ; preds = %3
  %7 = load i32, ptr %2, align 4, !tbaa !3
  %8 = icmp slt i32 %7, 1
  br i1 %8, label %9, label %14

9:                                                ; preds = %6
  %cond.i = icmp eq i32 %1, 0
  br i1 %cond.i, label %10, label %11

10:                                               ; preds = %9
  call void @llvm.memcpy.p0.p0.i64(ptr noundef nonnull align 16 dereferenceable(5) %4, ptr noundef nonnull align 1 dereferenceable(5) @.str.10, i64 5, i1 false) #16
  br label %_ZL23ucnv_copyPlatformStringPc18UConverterPlatform.exit

11:                                               ; preds = %9
  store i8 0, ptr %4, align 16, !tbaa !7
  br label %_ZL23ucnv_copyPlatformStringPc18UConverterPlatform.exit

_ZL23ucnv_copyPlatformStringPc18UConverterPlatform.exit: ; preds = %10, %11
  %.0.i.sroa.phi = phi ptr [ %.0.i.sroa.gep, %10 ], [ %4, %11 ]
  %12 = call i32 @T_CString_integerToString_77(ptr noundef nonnull %.0.i.sroa.phi, i32 noundef %0, i32 noundef 10)
  %13 = call ptr @ucnv_createConverter_77(ptr noundef null, ptr noundef nonnull %4, ptr noundef nonnull %2)
  br label %14

14:                                               ; preds = %3, %6, %_ZL23ucnv_copyPlatformStringPc18UConverterPlatform.exit
  %.0 = phi ptr [ %13, %_ZL23ucnv_copyPlatformStringPc18UConverterPlatform.exit ], [ null, %6 ], [ null, %3 ]
  call void @llvm.lifetime.end.p0(i64 60, ptr nonnull %4) #16
  ret ptr %.0
}